target datalayout = "e-m:e-p270:32:32-p271:32:32-p272:64:64-i64:64-i128:128-f80:128-n8:16:32:64-S128"
target triple = "x86_64-pc-linux-gnu"

%class.StubIDStubAssemblerCodeGenClosure = type <{ %class.StubAssemblerCodeGenClosure, i32, [4 x i8] }>
%class.StubAssemblerCodeGenClosure = type { ptr }
%class.BarrierSet = type { ptr, %class.FakeRttiSupport, ptr, ptr, ptr, ptr, ptr }
%class.FakeRttiSupport = type <{ i64, i32, [4 x i8] }>

@_ZN8Runtime16_blobsE = hidden global [33 x ptr] zeroinitializer, align 16
@_ZTV33StubIDStubAssemblerCodeGenClosure = linkonce_odr hidden unnamed_addr constant { [3 x ptr] } { [3 x ptr] [ptr null, ptr null, ptr @_ZN33StubIDStubAssemblerCodeGenClosure13generate_codeEP13StubAssembler] }, comdat, align 8
@_ZTV27StubAssemblerCodeGenClosure = linkonce_odr hidden unnamed_addr constant { [3 x ptr] } { [3 x ptr] [ptr null, ptr null, ptr @__cxa_pure_virtual] }, comdat, align 8
@_ZN10BarrierSet12_barrier_setE = external global ptr, align 8

; Function Attrs: mustprogress nounwind uwtable
define linkonce_odr hidden void @_ZN27StubAssemblerCodeGenClosureC2Ev(ptr noundef nonnull align 8 dereferenceable(8) %0) unnamed_addr #1 comdat align 2 {
  %2 = alloca ptr, align 8
  store ptr %0, ptr %2, align 8
  %3 = load ptr, ptr %2, align 8
  store ptr getelementptr inbounds inrange(-16, 8) ({ [3 x ptr] }, ptr @_ZTV27StubAssemblerCodeGenClosure, i32 0, i32 0, i32 2), ptr %3, align 8
  ret void
}

; Function Attrs: mustprogress nounwind uwtable
define hidden noundef ptr @_ZN8Runtime18name_forENS_6StubIDE(i32 noundef %0) #1 align 2 {
  %2 = alloca i32, align 4
  store i32 %0, ptr %2, align 4
  %3 = load i32, ptr %2, align 4
  %4 = zext i32 %3 to i64
  %5 = getelementptr inbounds [34 x ptr], ptr @_ZN8Runtime111_blob_namesE, i64 0, i64 %4
  %6 = load ptr, ptr %5, align 8
  ret ptr %6
}

; Function Attrs: mustprogress nounwind uwtable
define linkonce_odr hidden void @_ZN33StubIDStubAssemblerCodeGenClosureC2EN8Runtime16StubIDE(ptr noundef nonnull align 8 dereferenceable(12) %0, i32 noundef %1) unnamed_addr #1 comdat align 2 {
  %3 = alloca ptr, align 8
  %4 = alloca i32, align 4
  store ptr %0, ptr %3, align 8
  store i32 %1, ptr %4, align 4
  %5 = load ptr, ptr %3, align 8
  call void @_ZN27StubAssemblerCodeGenClosureC2Ev(ptr noundef nonnull align 8 dereferenceable(8) %5) #8
  store ptr getelementptr inbounds inrange(-16, 8) ({ [3 x ptr] }, ptr @_ZTV33StubIDStubAssemblerCodeGenClosure, i32 0, i32 0, i32 2), ptr %5, align 8
  %6 = getelementptr inbounds %class.StubIDStubAssemblerCodeGenClosure, ptr %5, i32 0, i32 1
  %7 = load i32, ptr %4, align 4
  store i32 %7, ptr %6, align 8
  ret void
}

; Function Attrs: mustprogress nounwind uwtable
define linkonce_odr hidden noundef ptr @_ZN10BarrierSet14barrier_set_c1Ev(ptr noundef nonnull align 8 dereferenceable(64) %0) #1 comdat align 2 {
  %2 = alloca ptr, align 8
  store ptr %0, ptr %2, align 8
  %3 = load ptr, ptr %2, align 8
  %4 = getelementptr inbounds %class.BarrierSet, ptr %3, i32 0, i32 3
  %5 = load ptr, ptr %4, align 8
  ret ptr %5
}

; Function Attrs: mustprogress nounwind uwtable
define linkonce_odr hidden noundef ptr @_ZN10BarrierSet11barrier_setEv() #1 comdat align 2 {
  %1 = load ptr, ptr @_ZN10BarrierSet12_barrier_setE, align 8
  ret ptr %1
}

; Function Attrs: mustprogress nounwind uwtable
define hidden void @_ZN8Runtime117generate_blob_forEP10BufferBlobNS_6StubIDE(ptr noundef %0, i32 noundef %1) #1 align 2 {
  %3 = alloca ptr, align 8
  %4 = alloca i32, align 4
  %5 = alloca i8, align 1
  %6 = alloca %class.StubIDStubAssemblerCodeGenClosure, align 8
  %7 = alloca ptr, align 8
  store ptr %0, ptr %3, align 8
  store i32 %1, ptr %4, align 4
  store i8 1, ptr %5, align 1
  %8 = load i32, ptr %4, align 4
  call void @_ZN33StubIDStubAssemblerCodeGenClosureC2EN8Runtime16StubIDE(ptr noundef nonnull align 8 dereferenceable(12) %6, i32 noundef %8)
  %9 = load ptr, ptr %3, align 8
  %10 = load i32, ptr %4, align 4
  %11 = load i32, ptr %4, align 4
  %12 = call noundef ptr @_ZN8Runtime18name_forENS_6StubIDE(i32 noundef %11)
  %13 = load i8, ptr %5, align 1
  %14 = trunc i8 %13 to i1
  %15 = call noundef ptr @_ZN8Runtime113generate_blobEP10BufferBlobiPKcbP27StubAssemblerCodeGenClosure(ptr noundef %9, i32 noundef %10, ptr noundef %12, i1 noundef zeroext %14, ptr noundef %6)
  store ptr %15, ptr %7, align 8
  %16 = load ptr, ptr %7, align 8
  %17 = load i32, ptr %4, align 4
  %18 = zext i32 %17 to i64
  %19 = getelementptr inbounds [33 x ptr], ptr @_ZN8Runtime16_blobsE, i64 0, i64 %18
  store ptr %16, ptr %19, align 8
  ret void
}

; Function Attrs: mustprogress nounwind uwtable
define hidden void @_ZN8Runtime110initializeEP10BufferBlob(ptr noundef %0) #1 align 2 {
  %2 = alloca ptr, align 8
  %3 = alloca i32, align 4
  %4 = alloca ptr, align 8
  store ptr %0, ptr %2, align 8
  call void @_ZN8Runtime113initialize_pdEv()
  store i32 0, ptr %3, align 4
  br label %5

5:                                                ; preds = %11, %1
  %6 = load i32, ptr %3, align 4
  %7 = icmp slt i32 %6, 33
  br i1 %7, label %8, label %14

8:                                                ; preds = %5
  %9 = load ptr, ptr %2, align 8
  %10 = load i32, ptr %3, align 4
  call void @_ZN8Runtime117generate_blob_forEP10BufferBlobNS_6StubIDE(ptr noundef %9, i32 noundef %10)
  br label %11

11:                                               ; preds = %8
  %12 = load i32, ptr %3, align 4
  %13 = add nsw i32 %12, 1
  store i32 %13, ptr %3, align 4
  br label %5, !llvm.loop !6

14:                                               ; preds = %5
  %15 = call noundef ptr @_ZN10BarrierSet11barrier_setEv()
  %16 = call noundef ptr @_ZN10BarrierSet14barrier_set_c1Ev(ptr noundef nonnull align 8 dereferenceable(64) %15)
  store ptr %16, ptr %4, align 8
  %17 = load ptr, ptr %4, align 8
  %18 = load ptr, ptr %2, align 8
  %19 = load ptr, ptr %17, align 8
  %20 = getelementptr inbounds ptr, ptr %19, i64 13
  %21 = load ptr, ptr %20, align 8
  call void %21(ptr noundef nonnull align 8 dereferenceable(8) %17, ptr noundef %18)
  ret void
}