; Function Attrs: mustprogress nounwind uwtable
define hidden void @_ZN8Runtime110initializeEP10BufferBlob(ptr noundef %0) local_unnamed_addr #0 align 2 {
  %2 = alloca %class.StubIDStubAssemblerCodeGenClosure, align 8
  tail call void @_ZN8Runtime113initialize_pdEv() #14
  %3 = getelementptr inbounds i8, ptr %2, i64 8
  br label %4

4:                                                ; preds = %1, %4
  %indvars.iv = phi i64 [ 0, %1 ], [ %indvars.iv.next, %4 ]
  call void @llvm.lifetime.start.p0(i64 16, ptr nonnull %2)
  store ptr getelementptr inbounds inrange(-16, 8) (i8, ptr @_ZTV33StubIDStubAssemblerCodeGenClosure, i64 16), ptr %2, align 8
  %5 = trunc nuw nsw i64 %indvars.iv to i32
  store i32 %5, ptr %3, align 8
  %6 = getelementptr inbounds [34 x ptr], ptr @_ZN8Runtime111_blob_namesE, i64 0, i64 %indvars.iv
  %7 = load ptr, ptr %6, align 8
  %8 = call noundef ptr @_ZN8Runtime113generate_blobEP10BufferBlobiPKcbP27StubAssemblerCodeGenClosure(ptr noundef %0, i32 noundef %5, ptr noundef %7, i1 zeroext poison, ptr noundef nonnull %2)
  %9 = getelementptr inbounds [33 x ptr], ptr @_ZN8Runtime16_blobsE, i64 0, i64 %indvars.iv
  store ptr %8, ptr %9, align 8
  call void @llvm.lifetime.end.p0(i64 16, ptr nonnull %2)
  %indvars.iv.next = add nuw nsw i64 %indvars.iv, 1
  %exitcond.not = icmp eq i64 %indvars.iv.next, 33
  br i1 %exitcond.not, label %10, label %4, !llvm.loop !6

10:                                               ; preds = %4
  %11 = load ptr, ptr @_ZN10BarrierSet12_barrier_setE, align 8
  %12 = getelementptr inbounds i8, ptr %11, i64 32
  %13 = load ptr, ptr %12, align 8
  %14 = load ptr, ptr %13, align 8
  %15 = getelementptr inbounds i8, ptr %14, i64 104
  %16 = load ptr, ptr %15, align 8
  call void %16(ptr noundef nonnull align 8 dereferenceable(8) %13, ptr noundef %0) #14
  ret void
}